; Function Attrs: mustprogress nofree norecurse nosync nounwind willreturn memory(argmem: readwrite) uwtable
define noundef range(i64 -60, 1) i64 @_ZN11duckdb_zstd22ZSTD_DCtx_setParameterEPNS_11ZSTD_DCtx_sENS_15ZSTD_dParameterEi(ptr noundef captures(none) %0, i32 noundef %1, i32 noundef %2) local_unnamed_addr #7 {
  %4 = getelementptr inbounds nuw i8, ptr %0, i64 30236
  %5 = load i32, ptr %4, align 4, !tbaa !129
  %.not = icmp eq i32 %5, 0
  br i1 %.not, label %6, label %41

6:                                                ; preds = %3
  switch i32 %1, label %41 [
    i32 100, label %7
    i32 1000, label %14
    i32 1001, label %18
    i32 1002, label %22
    i32 1003, label %26
    i32 1004, label %33
    i32 1005, label %37
  ]

7:                                                ; preds = %6
  %8 = icmp eq i32 %2, 0
  %spec.store.select = select i1 %8, i32 27, i32 %2
  %9 = add i32 %spec.store.select, -32
  %narrow.i = icmp ult i32 %9, -22
  br i1 %narrow.i, label %41, label %10

10:                                               ; preds = %7
  %11 = zext nneg i32 %spec.store.select to i64
  %12 = shl nuw nsw i64 1, %11
  %13 = getelementptr inbounds nuw i8, ptr %0, i64 30264
  store i64 %12, ptr %13, align 8, !tbaa !43
  br label %41

14:                                               ; preds = %6
  %15 = icmp ugt i32 %2, 1
  br i1 %15, label %41, label %16

16:                                               ; preds = %14
  %17 = getelementptr inbounds nuw i8, ptr %0, i64 30104
  store i32 %2, ptr %17, align 8, !tbaa !42
  br label %41

18:                                               ; preds = %6
  %19 = icmp ugt i32 %2, 1
  br i1 %19, label %41, label %20

20:                                               ; preds = %18
  %21 = getelementptr inbounds nuw i8, ptr %0, i64 30320
  store i32 %2, ptr %21, align 8, !tbaa !44
  br label %41

22:                                               ; preds = %6
  %23 = icmp ugt i32 %2, 1
  br i1 %23, label %41, label %24

24:                                               ; preds = %22
  %25 = getelementptr inbounds nuw i8, ptr %0, i64 30108
  store i32 %2, ptr %25, align 4, !tbaa !45
  br label %41

26:                                               ; preds = %6
  %27 = icmp ugt i32 %2, 1
  br i1 %27, label %41, label %28

28:                                               ; preds = %26
  %29 = getelementptr inbounds nuw i8, ptr %0, i64 30168
  %30 = load i64, ptr %29, align 8, !tbaa !49
  %.not31 = icmp eq i64 %30, 0
  br i1 %.not31, label %31, label %41

31:                                               ; preds = %28
  %32 = getelementptr inbounds nuw i8, ptr %0, i64 30224
  store i32 %2, ptr %32, align 8, !tbaa !46
  br label %41

33:                                               ; preds = %6
  %34 = icmp ugt i32 %2, 1
  br i1 %34, label %41, label %35

35:                                               ; preds = %33
  %36 = getelementptr inbounds nuw i8, ptr %0, i64 30228
  store i32 %2, ptr %36, align 4, !tbaa !47
  br label %41

37:                                               ; preds = %6
  %.not27 = icmp ne i32 %2, 0
  %38 = add i32 %2, -131073
  %narrow.i46 = icmp ult i32 %38, -130049
  %or.cond = and i1 %.not27, %narrow.i46
  br i1 %or.cond, label %41, label %39

39:                                               ; preds = %37
  %40 = getelementptr inbounds nuw i8, ptr %0, i64 30232
  store i32 %2, ptr %40, align 8, !tbaa !48
  br label %41

41:                                               ; preds = %37, %6, %33, %28, %26, %22, %18, %14, %7, %3, %39, %35, %31, %24, %20, %16, %10
  %.0 = phi i64 [ 0, %39 ], [ 0, %35 ], [ 0, %31 ], [ 0, %24 ], [ 0, %20 ], [ 0, %16 ], [ 0, %10 ], [ -60, %3 ], [ -42, %7 ], [ -42, %14 ], [ -42, %18 ], [ -42, %22 ], [ -42, %26 ], [ -40, %28 ], [ -42, %33 ], [ -40, %6 ], [ -42, %37 ]
  ret i64 %.0
}